; Function Attrs: nounwind uwtable
define dso_local range(i64 0, 2) i64 @namenlike(ptr noundef readonly captures(none) %0) local_unnamed_addr #0 {
  %2 = getelementptr inbounds nuw i8, ptr %0, i64 32
  %3 = load i64, ptr %2, align 8
  %4 = inttoptr i64 %3 to ptr
  %5 = getelementptr inbounds nuw i8, ptr %0, i64 48
  %6 = load i64, ptr %5, align 8
  %7 = inttoptr i64 %6 to ptr
  %8 = tail call ptr @pg_detoast_datum_packed(ptr noundef %7) #7
  %9 = tail call i64 @strlen(ptr noundef nonnull dereferenceable(1) %4) #8
  %10 = load i8, ptr %8, align 1
  %11 = zext i8 %10 to i32
  %12 = and i32 %11, 1
  %.not = icmp eq i32 %12, 0
  %13 = getelementptr inbounds nuw i8, ptr %8, i64 1
  %14 = icmp eq i8 %10, 1
  br i1 %14, label %15, label %23

15:                                               ; preds = %1
  %16 = load i8, ptr %13, align 1
  %17 = icmp eq i8 %16, 1
  %18 = and i8 %16, -2
  %19 = icmp eq i8 %18, 2
  %or.cond = or i1 %17, %19
  %20 = icmp eq i8 %16, 18
  %21 = select i1 %20, i32 16, i32 0
  %22 = select i1 %or.cond, i32 8, i32 %21
  br label %31

23:                                               ; preds = %1
  br i1 %.not, label %27, label %24

24:                                               ; preds = %23
  %25 = lshr i32 %11, 1
  %26 = add nsw i32 %25, -1
  br label %31

27:                                               ; preds = %23
  %28 = load i32, ptr %8, align 4
  %29 = lshr i32 %28, 2
  %30 = add nsw i32 %29, -4
  br label %31

31:                                               ; preds = %24, %27, %15
  %32 = phi i32 [ %22, %15 ], [ %26, %24 ], [ %30, %27 ]
  %33 = getelementptr inbounds nuw i8, ptr %8, i64 4
  %34 = select i1 %.not, ptr %33, ptr %13
  %35 = trunc i64 %9 to i32
  %36 = getelementptr inbounds nuw i8, ptr %0, i64 24
  %37 = load i32, ptr %36, align 8
  %38 = tail call fastcc i32 @GenericMatchText(ptr noundef nonnull %4, i32 noundef %35, ptr noundef nonnull %34, i32 noundef %32, i32 noundef %37)
  %39 = icmp ne i32 %38, 1
  %40 = zext i1 %39 to i64
  ret i64 %40
}